target datalayout = "e-m:e-p270:32:32-p271:32:32-p272:64:64-i64:64-i128:128-f80:128-n8:16:32:64-S128"
target triple = "x86_64-pc-linux-gnu"

%"class.google::protobuf::StringPiece" = type { ptr, i64 }

; Function Attrs: mustprogress nounwind uwtable
define noundef i64 @_ZNK6google8protobuf11StringPiece17find_first_not_ofEcm(ptr noundef nonnull align 8 dereferenceable(16) %0, i8 noundef signext %1, i64 noundef %2) #2 align 2 {
  %4 = alloca i64, align 8
  %5 = alloca ptr, align 8
  %6 = alloca i8, align 1
  %7 = alloca i64, align 8
  store ptr %0, ptr %5, align 8, !tbaa !8
  store i8 %1, ptr %6, align 1, !tbaa !28
  store i64 %2, ptr %7, align 8, !tbaa !15
  %8 = load ptr, ptr %5, align 8
  %9 = getelementptr inbounds nuw %"class.google::protobuf::StringPiece", ptr %8, i32 0, i32 1
  %10 = load i64, ptr %9, align 8, !tbaa !14
  %11 = icmp sle i64 %10, 0
  br i1 %11, label %12, label %13

12:                                               ; preds = %3
  store i64 -1, ptr %4, align 8
  br label %36

13:                                               ; preds = %3
  br label %14

14:                                               ; preds = %32, %13
  %15 = load i64, ptr %7, align 8, !tbaa !15
  %16 = getelementptr inbounds nuw %"class.google::protobuf::StringPiece", ptr %8, i32 0, i32 1
  %17 = load i64, ptr %16, align 8, !tbaa !14
  %18 = icmp ult i64 %15, %17
  br i1 %18, label %19, label %35

19:                                               ; preds = %14
  %20 = getelementptr inbounds nuw %"class.google::protobuf::StringPiece", ptr %8, i32 0, i32 0
  %21 = load ptr, ptr %20, align 8, !tbaa !10
  %22 = load i64, ptr %7, align 8, !tbaa !15
  %23 = getelementptr inbounds nuw i8, ptr %21, i64 %22
  %24 = load i8, ptr %23, align 1, !tbaa !28
  %25 = sext i8 %24 to i32
  %26 = load i8, ptr %6, align 1, !tbaa !28
  %27 = sext i8 %26 to i32
  %28 = icmp ne i32 %25, %27
  br i1 %28, label %29, label %31

29:                                               ; preds = %19
  %30 = load i64, ptr %7, align 8, !tbaa !15
  store i64 %30, ptr %4, align 8
  br label %36

31:                                               ; preds = %19
  br label %32

32:                                               ; preds = %31
  %33 = load i64, ptr %7, align 8, !tbaa !15
  %34 = add i64 %33, 1
  store i64 %34, ptr %7, align 8, !tbaa !15
  br label %14, !llvm.loop !39

35:                                               ; preds = %14
  store i64 -1, ptr %4, align 8
  br label %36

36:                                               ; preds = %35, %29, %12
  %37 = load i64, ptr %4, align 8
  ret i64 %37
}