; Function Attrs: mustprogress nofree norecurse nosync nounwind willreturn memory(read, inaccessiblemem: none) uwtable
define noundef i64 @_ZNK6google8protobuf11StringPiece17find_first_not_ofEcm(ptr noundef nonnull readonly align 8 captures(none) dereferenceable(16) %0, i8 noundef signext %1, i64 noundef %2) local_unnamed_addr #10 align 2 {
  %4 = getelementptr inbounds nuw i8, ptr %0, i64 8
  %5 = load i64, ptr %4, align 8, !tbaa !10
  %6 = icmp sgt i64 %5, 0
  %7 = icmp ult i64 %2, %5
  %or.cond = and i1 %6, %7
  br i1 %or.cond, label %.lr.ph, label %.loopexit

.lr.ph:                                           ; preds = %3
  %8 = load ptr, ptr %0, align 8, !tbaa !3
  br label %9

9:                                                ; preds = %.lr.ph, %12
  %.07 = phi i64 [ %2, %.lr.ph ], [ %13, %12 ]
  %10 = getelementptr inbounds nuw i8, ptr %8, i64 %.07
  %11 = load i8, ptr %10, align 1, !tbaa !16
  %.not = icmp eq i8 %11, %1
  br i1 %.not, label %12, label %.loopexit

12:                                               ; preds = %9
  %13 = add i64 %.07, 1
  %exitcond.not = icmp eq i64 %13, %5
  br i1 %exitcond.not, label %.loopexit, label %9, !llvm.loop !25

.loopexit:                                        ; preds = %9, %12, %3
  %.06 = phi i64 [ -1, %3 ], [ %.07, %9 ], [ -1, %12 ]
  ret i64 %.06
}